(dp1
I1
S'M'
sI2
S'D'
sI3
S'V'
sI4
S'F'
sI5
S'M'
sI6
S'K'
sI7
S'G'
sI8
S'L'
sI9
S'S'
sI10
S'K'
sI11
S'A'
sI12
S'K'
sI13
S'E'
sI14
S'G'
sI15
S'V'
sI16
S'V'
sI17
S'A'
sI18
S'A'
sI19
S'A'
sI20
S'E'
sI21
S'K'
sI22
S'T'
sI23
S'K'
sI24
S'Q'
sI25
S'G'
sI26
S'V'
sI27
S'A'
sI28
S'E'
sI29
S'A'
sI30
S'A'
sI31
S'G'
sI32
S'K'
sI33
S'T'
sI34
S'K'
sI35
S'E'
sI36
S'G'
sI37
S'V'
sI38
S'L'
sI39
S'Y'
sI40
S'V'
sI41
S'G'
sI42
S'S'
sI43
S'K'
sI44
S'T'
sI45
S'K'
sI46
S'E'
sI47
S'G'
sI48
S'V'
sI49
S'V'
sI50
S'H'
sI51
S'G'
sI52
S'V'
sI53
S'A'
sI54
S'T'
sI55
S'V'
sI56
S'A'
sI57
S'E'
sI58
S'K'
sI59
S'T'
sI60
S'K'
sI61
S'E'
sI62
S'Q'
sI63
S'V'
sI64
S'T'
sI65
S'N'
sI66
S'V'
sI67
S'G'
sI68
S'G'
sI69
S'A'
sI70
S'V'
sI71
S'V'
sI72
S'T'
sI73
S'G'
sI74
S'V'
sI75
S'T'
sI76
S'A'
sI77
S'V'
sI78
S'A'
sI79
S'Q'
sI80
S'K'
sI81
S'T'
sI82
S'V'
sI83
S'E'
sI84
S'G'
sI85
S'A'
sI86
S'G'
sI87
S'S'
sI88
S'I'
sI89
S'A'
sI90
S'A'
sI91
S'A'
sI92
S'T'
sI93
S'G'
sI94
S'F'
sI95
S'V'
sI96
S'K'
sI97
S'K'
sI98
S'D'
sI99
S'Q'
sI100
S'L'
sI101
S'G'
sI102
S'K'
sI103
S'N'
sI104
S'E'
sI105
S'E'
sI106
S'G'
sI107
S'A'
sI108
S'P'
sI109
S'Q'
sI110
S'E'
sI111
S'G'
sI112
S'I'
sI113
S'L'
sI114
S'E'
sI115
S'D'
sI116
S'M'
sI117
S'P'
sI118
S'V'
sI119
S'D'
sI120
S'P'
sI121
S'D'
sI122
S'N'
sI123
S'E'
sI124
S'A'
sI125
S'Y'
sI126
S'E'
sI127
S'M'
sI128
S'P'
sI129
S'S'
sI130
S'E'
sI131
S'E'
sI132
S'G'
sI133
S'Y'
sI134
S'Q'
sI135
S'D'
sI136
S'Y'
sI137
S'E'
sI138
S'P'
sI139
S'E'
sI140
S'A'
s.
